target datalayout = "e-m:e-p270:32:32-p271:32:32-p272:64:64-i64:64-i128:128-f80:128-n8:16:32:64-S128"
target triple = "x86_64-pc-linux-gnu"

%struct.JNINativeInterface_ = type { ptr, ptr, ptr, ptr, ptr, ptr, ptr, ptr, ptr, ptr, ptr, ptr, ptr, ptr, ptr, ptr, ptr, ptr, ptr, ptr, ptr, ptr, ptr, ptr, ptr, ptr, ptr, ptr, ptr, ptr, ptr, ptr, ptr, ptr, ptr, ptr, ptr, ptr, ptr, ptr, ptr, ptr, ptr, ptr, ptr, ptr, ptr, ptr, ptr, ptr, ptr, ptr, ptr, ptr, ptr, ptr, ptr, ptr, ptr, ptr, ptr, ptr, ptr, ptr, ptr, ptr, ptr, ptr, ptr, ptr, ptr, ptr, ptr, ptr, ptr, ptr, ptr, ptr, ptr, ptr, ptr, ptr, ptr, ptr, ptr, ptr, ptr, ptr, ptr, ptr, ptr, ptr, ptr, ptr, ptr, ptr, ptr, ptr, ptr, ptr, ptr, ptr, ptr, ptr, ptr, ptr, ptr, ptr, ptr, ptr, ptr, ptr, ptr, ptr, ptr, ptr, ptr, ptr, ptr, ptr, ptr, ptr, ptr, ptr, ptr, ptr, ptr, ptr, ptr, ptr, ptr, ptr, ptr, ptr, ptr, ptr, ptr, ptr, ptr, ptr, ptr, ptr, ptr, ptr, ptr, ptr, ptr, ptr, ptr, ptr, ptr, ptr, ptr, ptr, ptr, ptr, ptr, ptr, ptr, ptr, ptr, ptr, ptr, ptr, ptr, ptr, ptr, ptr, ptr, ptr, ptr, ptr, ptr, ptr, ptr, ptr, ptr, ptr, ptr, ptr, ptr, ptr, ptr, ptr, ptr, ptr, ptr, ptr, ptr, ptr, ptr, ptr, ptr, ptr, ptr, ptr, ptr, ptr, ptr, ptr, ptr, ptr, ptr, ptr, ptr, ptr, ptr, ptr, ptr, ptr, ptr, ptr, ptr, ptr, ptr, ptr, ptr, ptr, ptr, ptr, ptr, ptr, ptr, ptr, ptr, ptr, ptr, ptr, ptr, ptr, ptr, ptr, ptr, ptr, ptr }
%struct.msghdr = type { ptr, i32, ptr, i64, ptr, i64, i32 }
%struct.sctp_sndrcvinfo = type { i16, i16, i16, i32, i32, i32, i32, i32, i32 }
%struct.iovec = type { ptr, i64 }
%struct.sctp_send_failed = type { i16, i16, i32, i32, %struct.sctp_sndrcvinfo, i32, [0 x i8] }

@src_valueID = internal global ptr null, align 8
@src_typeID = internal global ptr null, align 8
@ssf_class = internal global ptr null, align 8
@ssf_ctrID = internal global ptr null, align 8
@.str.16 = private unnamed_addr constant [17 x i8] c"handleSendFailed\00", align 1

; Function Attrs: nounwind uwtable
define hidden void @handleSendFailed(ptr noundef %0, i32 noundef %1, ptr noundef %2, ptr noundef %3, i32 noundef %4, i8 noundef zeroext %5, ptr noundef %6) #0 {
  %8 = alloca ptr, align 8
  %9 = alloca i32, align 4
  %10 = alloca ptr, align 8
  %11 = alloca ptr, align 8
  %12 = alloca i32, align 4
  %13 = alloca i8, align 1
  %14 = alloca ptr, align 8
  %15 = alloca ptr, align 8
  %16 = alloca ptr, align 8
  %17 = alloca ptr, align 8
  %18 = alloca ptr, align 8
  %19 = alloca ptr, align 8
  %20 = alloca i32, align 4
  %21 = alloca i32, align 4
  %22 = alloca i32, align 4
  %23 = alloca [1 x %struct.iovec], align 16
  %24 = alloca [1 x %struct.msghdr], align 16
  %25 = alloca i32, align 4
  %26 = alloca i32, align 4
  %27 = alloca ptr, align 8
  store ptr %0, ptr %8, align 8
  store i32 %1, ptr %9, align 4
  store ptr %2, ptr %10, align 8
  store ptr %3, ptr %11, align 8
  store i32 %4, ptr %12, align 4
  store i8 %5, ptr %13, align 1
  store ptr %6, ptr %14, align 8
  store ptr null, ptr %15, align 8
  store i32 48, ptr %22, align 4
  %28 = load ptr, ptr %11, align 8
  %29 = getelementptr inbounds %struct.sctp_send_failed, ptr %28, i32 0, i32 4
  store ptr %29, ptr %19, align 8
  %30 = load ptr, ptr %11, align 8
  %31 = getelementptr inbounds %struct.sctp_send_failed, ptr %30, i32 0, i32 2
  %32 = load i32, ptr %31, align 4
  %33 = load i32, ptr %12, align 4
  %34 = sub i32 %32, %33
  store i32 %34, ptr %20, align 4
  %35 = load ptr, ptr %11, align 8
  %36 = getelementptr inbounds %struct.sctp_send_failed, ptr %35, i32 0, i32 2
  %37 = load i32, ptr %36, align 4
  %38 = load i32, ptr %22, align 4
  %39 = sub i32 %37, %38
  store i32 %39, ptr %21, align 4
  %40 = load ptr, ptr %8, align 8
  %41 = load ptr, ptr %14, align 8
  %42 = call ptr @SockAddrToInetSocketAddress(ptr noundef %40, ptr noundef %41)
  store ptr %42, ptr %17, align 8
  br label %43

43:                                               ; preds = %7
  %44 = load ptr, ptr %17, align 8
  %45 = icmp eq ptr %44, null
  br i1 %45, label %46, label %47

46:                                               ; preds = %43
  br label %190

47:                                               ; preds = %43
  br label %48

48:                                               ; preds = %47
  %49 = load i32, ptr %21, align 4
  %50 = icmp sgt i32 %49, 0
  br i1 %50, label %51, label %145

51:                                               ; preds = %48
  %52 = load ptr, ptr %11, align 8
  store ptr %52, ptr %27, align 8
  %53 = load i32, ptr %22, align 4
  %54 = load ptr, ptr %27, align 8
  %55 = sext i32 %53 to i64
  %56 = getelementptr inbounds i8, ptr %54, i64 %55
  store ptr %56, ptr %27, align 8
  %57 = load i32, ptr %21, align 4
  %58 = sext i32 %57 to i64
  %59 = call noalias ptr @malloc(i64 noundef %58) #9
  store ptr %59, ptr %18, align 8
  %60 = icmp eq ptr %59, null
  br i1 %60, label %61, label %63

61:                                               ; preds = %51
  %62 = load ptr, ptr %8, align 8
  call void @JNU_ThrowOutOfMemoryError(ptr noundef %62, ptr noundef @.str.16)
  br label %190

63:                                               ; preds = %51
  %64 = getelementptr inbounds [1 x %struct.msghdr], ptr %24, i64 0, i64 0
  call void @llvm.memset.p0.i64(ptr align 16 %64, i8 0, i64 56, i1 false)
  %65 = getelementptr inbounds [1 x %struct.iovec], ptr %23, i64 0, i64 0
  %66 = getelementptr inbounds [1 x %struct.msghdr], ptr %24, i64 0, i64 0
  %67 = getelementptr inbounds %struct.msghdr, ptr %66, i32 0, i32 2
  store ptr %65, ptr %67, align 16
  %68 = getelementptr inbounds [1 x %struct.msghdr], ptr %24, i64 0, i64 0
  %69 = getelementptr inbounds %struct.msghdr, ptr %68, i32 0, i32 3
  store i64 1, ptr %69, align 8
  %70 = load ptr, ptr %8, align 8
  %71 = load ptr, ptr %70, align 8
  %72 = getelementptr inbounds %struct.JNINativeInterface_, ptr %71, i32 0, i32 229
  %73 = load ptr, ptr %72, align 8
  %74 = load ptr, ptr %8, align 8
  %75 = load ptr, ptr %18, align 8
  %76 = load i32, ptr %21, align 4
  %77 = sext i32 %76 to i64
  %78 = call ptr %73(ptr noundef %74, ptr noundef %75, i64 noundef %77)
  store ptr %78, ptr %15, align 8
  %79 = load ptr, ptr %15, align 8
  %80 = icmp eq ptr %79, null
  br i1 %80, label %81, label %83

81:                                               ; preds = %63
  %82 = load ptr, ptr %18, align 8
  call void @free(ptr noundef %82) #8
  br label %190

83:                                               ; preds = %63
  %84 = load i32, ptr %12, align 4
  %85 = load i32, ptr %22, align 4
  %86 = sub nsw i32 %84, %85
  store i32 %86, ptr %26, align 4
  %87 = load i32, ptr %26, align 4
  %88 = icmp sgt i32 %87, 0
  br i1 %88, label %89, label %106

89:                                               ; preds = %83
  %90 = load ptr, ptr %18, align 8
  %91 = load ptr, ptr %27, align 8
  %92 = load i32, ptr %26, align 4
  %93 = sext i32 %92 to i64
  call void @llvm.memcpy.p0.p0.i64(ptr align 1 %90, ptr align 1 %91, i64 %93, i1 false)
  %94 = load ptr, ptr %18, align 8
  %95 = load i32, ptr %26, align 4
  %96 = sext i32 %95 to i64
  %97 = getelementptr inbounds i8, ptr %94, i64 %96
  %98 = getelementptr inbounds [1 x %struct.iovec], ptr %23, i64 0, i64 0
  %99 = getelementptr inbounds %struct.iovec, ptr %98, i32 0, i32 0
  store ptr %97, ptr %99, align 16
  %100 = load i32, ptr %21, align 4
  %101 = load i32, ptr %26, align 4
  %102 = sub nsw i32 %100, %101
  %103 = sext i32 %102 to i64
  %104 = getelementptr inbounds [1 x %struct.iovec], ptr %23, i64 0, i64 0
  %105 = getelementptr inbounds %struct.iovec, ptr %104, i32 0, i32 1
  store i64 %103, ptr %105, align 8
  br label %114

106:                                              ; preds = %83
  %107 = load ptr, ptr %18, align 8
  %108 = getelementptr inbounds [1 x %struct.iovec], ptr %23, i64 0, i64 0
  %109 = getelementptr inbounds %struct.iovec, ptr %108, i32 0, i32 0
  store ptr %107, ptr %109, align 16
  %110 = load i32, ptr %21, align 4
  %111 = sext i32 %110 to i64
  %112 = getelementptr inbounds [1 x %struct.iovec], ptr %23, i64 0, i64 0
  %113 = getelementptr inbounds %struct.iovec, ptr %112, i32 0, i32 1
  store i64 %111, ptr %113, align 8
  br label %114

114:                                              ; preds = %106, %89
  %115 = load i32, ptr %20, align 4
  %116 = icmp sgt i32 %115, 0
  br i1 %116, label %117, label %144

117:                                              ; preds = %114
  %118 = load i32, ptr %9, align 4
  %119 = getelementptr inbounds [1 x %struct.msghdr], ptr %24, i64 0, i64 0
  %120 = call i64 @recvmsg(i32 noundef %118, ptr noundef %119, i32 noundef 0)
  %121 = trunc i64 %120 to i32
  store i32 %121, ptr %25, align 4
  %122 = icmp slt i32 %121, 0
  br i1 %122, label %123, label %129

123:                                              ; preds = %117
  %124 = load ptr, ptr %18, align 8
  call void @free(ptr noundef %124) #8
  %125 = load ptr, ptr %8, align 8
  %126 = call ptr @__errno_location() #7
  %127 = load i32, ptr %126, align 4
  %128 = call i32 @sctpHandleSocketError(ptr noundef %125, i32 noundef %127)
  br label %190

129:                                              ; preds = %117
  %130 = load i32, ptr %25, align 4
  %131 = load i32, ptr %21, align 4
  %132 = load i32, ptr %26, align 4
  %133 = sub nsw i32 %131, %132
  %134 = icmp ne i32 %130, %133
  br i1 %134, label %141, label %135

135:                                              ; preds = %129
  %136 = getelementptr inbounds [1 x %struct.msghdr], ptr %24, i64 0, i64 0
  %137 = getelementptr inbounds %struct.msghdr, ptr %136, i32 0, i32 6
  %138 = load i32, ptr %137, align 16
  %139 = and i32 %138, 128
  %140 = icmp ne i32 %139, 0
  br i1 %140, label %143, label %141

141:                                              ; preds = %135, %129
  %142 = load ptr, ptr %18, align 8
  call void @free(ptr noundef %142) #8
  br label %190

143:                                              ; preds = %135
  br label %144

144:                                              ; preds = %143, %114
  br label %145

145:                                              ; preds = %144, %48
  %146 = load ptr, ptr %8, align 8
  %147 = load ptr, ptr %146, align 8
  %148 = getelementptr inbounds %struct.JNINativeInterface_, ptr %147, i32 0, i32 28
  %149 = load ptr, ptr %148, align 8
  %150 = load ptr, ptr %8, align 8
  %151 = load ptr, ptr @ssf_class, align 8
  %152 = load ptr, ptr @ssf_ctrID, align 8
  %153 = load ptr, ptr %11, align 8
  %154 = getelementptr inbounds %struct.sctp_send_failed, ptr %153, i32 0, i32 5
  %155 = load i32, ptr %154, align 4
  %156 = load ptr, ptr %17, align 8
  %157 = load ptr, ptr %15, align 8
  %158 = load ptr, ptr %11, align 8
  %159 = getelementptr inbounds %struct.sctp_send_failed, ptr %158, i32 0, i32 3
  %160 = load i32, ptr %159, align 4
  %161 = load ptr, ptr %19, align 8
  %162 = getelementptr inbounds %struct.sctp_sndrcvinfo, ptr %161, i32 0, i32 0
  %163 = load i16, ptr %162, align 4
  %164 = zext i16 %163 to i32
  %165 = call ptr (ptr, ptr, ptr, ...) %149(ptr noundef %150, ptr noundef %151, ptr noundef %152, i32 noundef %155, ptr noundef %156, ptr noundef %157, i32 noundef %160, i32 noundef %164)
  store ptr %165, ptr %16, align 8
  %166 = load ptr, ptr %16, align 8
  %167 = icmp eq ptr %166, null
  br i1 %167, label %168, label %174

168:                                              ; preds = %145
  %169 = load ptr, ptr %15, align 8
  %170 = icmp ne ptr %169, null
  br i1 %170, label %171, label %173

171:                                              ; preds = %168
  %172 = load ptr, ptr %18, align 8
  call void @free(ptr noundef %172) #8
  br label %173

173:                                              ; preds = %171, %168
  br label %190

174:                                              ; preds = %145
  %175 = load ptr, ptr %8, align 8
  %176 = load ptr, ptr %175, align 8
  %177 = getelementptr inbounds %struct.JNINativeInterface_, ptr %176, i32 0, i32 104
  %178 = load ptr, ptr %177, align 8
  %179 = load ptr, ptr %8, align 8
  %180 = load ptr, ptr %10, align 8
  %181 = load ptr, ptr @src_valueID, align 8
  %182 = load ptr, ptr %16, align 8
  call void %178(ptr noundef %179, ptr noundef %180, ptr noundef %181, ptr noundef %182)
  %183 = load ptr, ptr %8, align 8
  %184 = load ptr, ptr %183, align 8
  %185 = getelementptr inbounds %struct.JNINativeInterface_, ptr %184, i32 0, i32 109
  %186 = load ptr, ptr %185, align 8
  %187 = load ptr, ptr %8, align 8
  %188 = load ptr, ptr %10, align 8
  %189 = load ptr, ptr @src_typeID, align 8
  call void %186(ptr noundef %187, ptr noundef %188, ptr noundef %189, i32 noundef 2)
  br label %190

190:                                              ; preds = %174, %173, %141, %123, %81, %61, %46
  ret void
}