; Function Attrs: nounwind uwtable
define hidden void @handleSendFailed(ptr noundef %0, i32 noundef %1, ptr noundef %2, ptr nocapture noundef readonly %3, i32 noundef %4, i8 zeroext %5, ptr noundef %6) local_unnamed_addr #0 {
  %8 = alloca [1 x %struct.iovec], align 16
  %9 = alloca [1 x %struct.msghdr], align 16
  %10 = getelementptr inbounds i8, ptr %3, i64 12
  %11 = getelementptr inbounds i8, ptr %3, i64 4
  %12 = load i32, ptr %11, align 4
  %13 = sub i32 %12, %4
  %14 = add i32 %12, -48
  %15 = tail call ptr @SockAddrToInetSocketAddress(ptr noundef %0, ptr noundef %6) #11
  %16 = icmp eq ptr %15, null
  br i1 %16, label %83, label %17

17:                                               ; preds = %7
  %18 = icmp sgt i32 %14, 0
  br i1 %18, label %19, label %58

19:                                               ; preds = %17
  %20 = getelementptr inbounds i8, ptr %3, i64 48
  %21 = zext nneg i32 %14 to i64
  %22 = tail call noalias ptr @malloc(i64 noundef %21) #13
  %23 = icmp eq ptr %22, null
  br i1 %23, label %24, label %25

24:                                               ; preds = %19
  tail call void @JNU_ThrowOutOfMemoryError(ptr noundef %0, ptr noundef nonnull @.str.16) #11
  br label %83

25:                                               ; preds = %19
  call void @llvm.memset.p0.i64(ptr noundef nonnull align 16 dereferenceable(56) %9, i8 0, i64 56, i1 false)
  %26 = getelementptr inbounds i8, ptr %9, i64 16
  store ptr %8, ptr %26, align 16
  %27 = getelementptr inbounds i8, ptr %9, i64 24
  store i64 1, ptr %27, align 8
  %28 = load ptr, ptr %0, align 8
  %29 = getelementptr inbounds i8, ptr %28, i64 1832
  %30 = load ptr, ptr %29, align 8
  %31 = call ptr %30(ptr noundef nonnull %0, ptr noundef nonnull %22, i64 noundef %21) #11
  %32 = icmp eq ptr %31, null
  br i1 %32, label %33, label %34

33:                                               ; preds = %25
  call void @free(ptr noundef nonnull %22) #11
  br label %83

34:                                               ; preds = %25
  %35 = icmp sgt i32 %4, 48
  br i1 %35, label %36, label %41

36:                                               ; preds = %34
  %37 = add nsw i32 %4, -48
  %38 = zext nneg i32 %37 to i64
  call void @llvm.memcpy.p0.p0.i64(ptr nonnull align 1 %22, ptr nonnull align 1 %20, i64 %38, i1 false)
  %39 = getelementptr inbounds i8, ptr %22, i64 %38
  %40 = sext i32 %13 to i64
  br label %41

41:                                               ; preds = %34, %36
  %.sink66 = phi ptr [ %39, %36 ], [ %22, %34 ]
  %.sink = phi i64 [ %40, %36 ], [ %21, %34 ]
  store ptr %.sink66, ptr %8, align 16
  %42 = getelementptr inbounds i8, ptr %8, i64 8
  store i64 %.sink, ptr %42, align 8
  %43 = icmp sgt i32 %13, 0
  br i1 %43, label %44, label %58

44:                                               ; preds = %41
  %45 = call i64 @recvmsg(i32 noundef %1, ptr noundef nonnull %9, i32 noundef 0) #11
  %46 = trunc i64 %45 to i32
  %47 = icmp slt i32 %46, 0
  br i1 %47, label %48, label %52

48:                                               ; preds = %44
  call void @free(ptr noundef nonnull %22) #11
  %49 = tail call ptr @__errno_location() #12
  %50 = load i32, ptr %49, align 4
  %51 = call i32 @sctpHandleSocketError(ptr noundef nonnull %0, i32 noundef %50) #11
  br label %83

52:                                               ; preds = %44
  %.not = icmp eq i32 %13, %46
  br i1 %.not, label %53, label %57

53:                                               ; preds = %52
  %54 = getelementptr inbounds i8, ptr %9, i64 48
  %55 = load i32, ptr %54, align 16
  %56 = and i32 %55, 128
  %.not64 = icmp eq i32 %56, 0
  br i1 %.not64, label %57, label %58

57:                                               ; preds = %53, %52
  call void @free(ptr noundef nonnull %22) #11
  br label %83

58:                                               ; preds = %41, %53, %17
  %.056 = phi ptr [ %22, %53 ], [ %22, %41 ], [ undef, %17 ]
  %.0 = phi ptr [ %31, %53 ], [ %31, %41 ], [ null, %17 ]
  %59 = load ptr, ptr %0, align 8
  %60 = getelementptr inbounds i8, ptr %59, i64 224
  %61 = load ptr, ptr %60, align 8
  %62 = load ptr, ptr @ssf_class, align 8
  %63 = load ptr, ptr @ssf_ctrID, align 8
  %64 = getelementptr inbounds i8, ptr %3, i64 44
  %65 = load i32, ptr %64, align 4
  %66 = getelementptr inbounds i8, ptr %3, i64 8
  %67 = load i32, ptr %66, align 4
  %68 = load i16, ptr %10, align 4
  %69 = zext i16 %68 to i32
  %70 = call ptr (ptr, ptr, ptr, ...) %61(ptr noundef nonnull %0, ptr noundef %62, ptr noundef %63, i32 noundef %65, ptr noundef nonnull %15, ptr noundef %.0, i32 noundef %67, i32 noundef %69) #11
  %71 = icmp eq ptr %70, null
  br i1 %71, label %72, label %74

72:                                               ; preds = %58
  %.not65 = icmp eq ptr %.0, null
  br i1 %.not65, label %83, label %73

73:                                               ; preds = %72
  call void @free(ptr noundef %.056) #11
  br label %83

74:                                               ; preds = %58
  %75 = load ptr, ptr %0, align 8
  %76 = getelementptr inbounds i8, ptr %75, i64 832
  %77 = load ptr, ptr %76, align 8
  %78 = load ptr, ptr @src_valueID, align 8
  call void %77(ptr noundef nonnull %0, ptr noundef %2, ptr noundef %78, ptr noundef nonnull %70) #11
  %79 = load ptr, ptr %0, align 8
  %80 = getelementptr inbounds i8, ptr %79, i64 872
  %81 = load ptr, ptr %80, align 8
  %82 = load ptr, ptr @src_typeID, align 8
  call void %81(ptr noundef nonnull %0, ptr noundef %2, ptr noundef %82, i32 noundef 2) #11
  br label %83

83:                                               ; preds = %72, %73, %7, %74, %57, %48, %33, %24
  ret void
}